target datalayout = "e-m:e-p270:32:32-p271:32:32-p272:64:64-i64:64-i128:128-f80:128-n8:16:32:64-S128"
target triple = "x86_64-pc-linux-gnu"

%struct.mbedtls_mpi = type { ptr, i16, i16 }
%union.mbedtls_ssl_user_data_t = type { i64 }
%struct.mbedtls_ssl_context = type { ptr, i32, i32, i32, i32, i32, ptr, ptr, ptr, ptr, ptr, ptr, ptr, ptr, ptr, ptr, ptr, ptr, ptr, ptr, ptr, ptr, ptr, ptr, ptr, ptr, ptr, ptr, ptr, ptr, ptr, ptr, ptr, i32, i64, i64, i16, i64, i64, i64, i64, i32, i32, i8, i8, i32, i8, ptr, ptr, ptr, ptr, ptr, ptr, ptr, i32, i64, i64, [8 x i8], i16, ptr, ptr, ptr, i64, i32, i64, [12 x i8], [12 x i8], [32 x i8], i8, i8, ptr, ptr, %union.mbedtls_ssl_user_data_t }
%struct.mbedtls_md_context_t = type { ptr, ptr, ptr }
%struct.mbedtls_ssl_handshake_params = type { i8, i8, i8, i8, i8, i32, i8, i8, i8, i8, ptr, ptr, ptr, ptr, ptr, i8, i8, i8, i8, i16, i16, [20 x i16], ptr, ptr, %struct.mbedtls_dhm_context, %struct.mbedtls_ecdh_context, i16, i64, i32, i8, [1024 x i8], i64, ptr, ptr, i64, i16, ptr, ptr, ptr, ptr, %struct.anon, ptr, i16, i8, i32, i32, i32, ptr, ptr, ptr, i32, ptr, [8 x i8], i8, [32 x i8], i8, i16, %struct.mbedtls_md_context_t, %struct.mbedtls_md_context_t, i16, i8, %union.anon.1, [64 x i8], [1076 x i8], i64, i32, i32, i8, ptr, ptr, %union.anon.4, %struct.mbedtls_ssl_tls13_handshake_secrets, ptr, i64, ptr }
%struct.mbedtls_dhm_context = type { %struct.mbedtls_mpi, %struct.mbedtls_mpi, %struct.mbedtls_mpi, %struct.mbedtls_mpi, %struct.mbedtls_mpi, %struct.mbedtls_mpi, %struct.mbedtls_mpi, %struct.mbedtls_mpi, %struct.mbedtls_mpi, %struct.mbedtls_mpi }
%struct.mbedtls_ecdh_context = type { i8, i32, i32, %union.anon }
%union.anon = type { %struct.mbedtls_ecdh_context_mbed }
%struct.mbedtls_ecdh_context_mbed = type { %struct.mbedtls_ecp_group, %struct.mbedtls_mpi, %struct.mbedtls_ecp_point, %struct.mbedtls_ecp_point, %struct.mbedtls_mpi }
%struct.mbedtls_ecp_group = type { i32, %struct.mbedtls_mpi, %struct.mbedtls_mpi, %struct.mbedtls_mpi, %struct.mbedtls_ecp_point, %struct.mbedtls_mpi, i64, i64, i32, ptr, ptr, ptr, ptr, ptr, i64 }
%struct.mbedtls_ecp_point = type { %struct.mbedtls_mpi, %struct.mbedtls_mpi, %struct.mbedtls_mpi }
%struct.anon = type { i64, i8, [4 x %struct.mbedtls_ssl_hs_buffer], %struct.anon.0 }
%struct.mbedtls_ssl_hs_buffer = type { i8, ptr, i64 }
%struct.anon.0 = type { ptr, i64, i32 }
%union.anon.1 = type { %struct.anon.2 }
%struct.anon.2 = type { i8, [64 x i8], i64 }
%union.anon.4 = type { [64 x i8] }
%struct.mbedtls_ssl_tls13_handshake_secrets = type { [64 x i8], [64 x i8] }

@.str = private unnamed_addr constant [121 x i8] c"generated/home/dtcxzyw/WorkSpace/Projects/compilers/llvm-opt-benchmark/bench/lief/bench_build/mbed_src/library/ssl_tls.c\00", align 1
@.str.95 = private unnamed_addr constant [35 x i8] c"server side, adding alpn extension\00", align 1

; Function Attrs: nounwind uwtable
define hidden i32 @mbedtls_ssl_get_extension_id(i32 noundef %0) #0 {
  %2 = alloca i32, align 4
  %3 = alloca i32, align 4
  store i32 %0, ptr %3, align 4, !tbaa !10
  %4 = load i32, ptr %3, align 4, !tbaa !10
  switch i32 %4, label %33 [
    i32 0, label %5
    i32 1, label %6
    i32 5, label %7
    i32 10, label %8
    i32 13, label %9
    i32 14, label %10
    i32 15, label %11
    i32 16, label %12
    i32 18, label %13
    i32 19, label %14
    i32 20, label %15
    i32 21, label %16
    i32 41, label %17
    i32 42, label %18
    i32 43, label %19
    i32 44, label %20
    i32 45, label %21
    i32 47, label %22
    i32 48, label %23
    i32 49, label %24
    i32 50, label %25
    i32 51, label %26
    i32 4, label %27
    i32 11, label %28
    i32 22, label %29
    i32 23, label %30
    i32 28, label %31
    i32 35, label %32
  ]

5:                                                ; preds = %1
  store i32 1, ptr %2, align 4
  br label %34

6:                                                ; preds = %1
  store i32 2, ptr %2, align 4
  br label %34

7:                                                ; preds = %1
  store i32 3, ptr %2, align 4
  br label %34

8:                                                ; preds = %1
  store i32 4, ptr %2, align 4
  br label %34

9:                                                ; preds = %1
  store i32 5, ptr %2, align 4
  br label %34

10:                                               ; preds = %1
  store i32 6, ptr %2, align 4
  br label %34

11:                                               ; preds = %1
  store i32 7, ptr %2, align 4
  br label %34

12:                                               ; preds = %1
  store i32 8, ptr %2, align 4
  br label %34

13:                                               ; preds = %1
  store i32 9, ptr %2, align 4
  br label %34

14:                                               ; preds = %1
  store i32 10, ptr %2, align 4
  br label %34

15:                                               ; preds = %1
  store i32 11, ptr %2, align 4
  br label %34

16:                                               ; preds = %1
  store i32 12, ptr %2, align 4
  br label %34

17:                                               ; preds = %1
  store i32 13, ptr %2, align 4
  br label %34

18:                                               ; preds = %1
  store i32 14, ptr %2, align 4
  br label %34

19:                                               ; preds = %1
  store i32 15, ptr %2, align 4
  br label %34

20:                                               ; preds = %1
  store i32 16, ptr %2, align 4
  br label %34

21:                                               ; preds = %1
  store i32 17, ptr %2, align 4
  br label %34

22:                                               ; preds = %1
  store i32 18, ptr %2, align 4
  br label %34

23:                                               ; preds = %1
  store i32 19, ptr %2, align 4
  br label %34

24:                                               ; preds = %1
  store i32 20, ptr %2, align 4
  br label %34

25:                                               ; preds = %1
  store i32 21, ptr %2, align 4
  br label %34

26:                                               ; preds = %1
  store i32 22, ptr %2, align 4
  br label %34

27:                                               ; preds = %1
  store i32 23, ptr %2, align 4
  br label %34

28:                                               ; preds = %1
  store i32 24, ptr %2, align 4
  br label %34

29:                                               ; preds = %1
  store i32 25, ptr %2, align 4
  br label %34

30:                                               ; preds = %1
  store i32 26, ptr %2, align 4
  br label %34

31:                                               ; preds = %1
  store i32 28, ptr %2, align 4
  br label %34

32:                                               ; preds = %1
  store i32 27, ptr %2, align 4
  br label %34

33:                                               ; preds = %1
  store i32 0, ptr %2, align 4
  br label %34

34:                                               ; preds = %33, %32, %31, %30, %29, %28, %27, %26, %25, %24, %23, %22, %21, %20, %19, %18, %17, %16, %15, %14, %13, %12, %11, %10, %9, %8, %7, %6, %5
  %35 = load i32, ptr %2, align 4
  ret i32 %35
}

; Function Attrs: nounwind uwtable
define hidden i32 @mbedtls_ssl_get_extension_mask(i32 noundef %0) #0 {
  %2 = alloca i32, align 4
  store i32 %0, ptr %2, align 4, !tbaa !10
  %3 = load i32, ptr %2, align 4, !tbaa !10
  %4 = call i32 @mbedtls_ssl_get_extension_id(i32 noundef %3)
  %5 = shl i32 1, %4
  ret i32 %5
}

; Function Attrs: inlinehint nounwind uwtable
define internal void @mbedtls_ssl_tls13_set_hs_sent_ext_mask(ptr noundef %0, i32 noundef %1) #3 {
  %3 = alloca ptr, align 8
  %4 = alloca i32, align 4
  store ptr %0, ptr %3, align 8, !tbaa !27
  store i32 %1, ptr %4, align 4, !tbaa !10
  %5 = load i32, ptr %4, align 4, !tbaa !10
  %6 = call i32 @mbedtls_ssl_get_extension_mask(i32 noundef %5)
  %7 = load ptr, ptr %3, align 8, !tbaa !27
  %8 = getelementptr inbounds nuw %struct.mbedtls_ssl_context, ptr %7, i32 0, i32 16
  %9 = load ptr, ptr %8, align 8, !tbaa !78
  %10 = getelementptr inbounds nuw %struct.mbedtls_ssl_handshake_params, ptr %9, i32 0, i32 65
  %11 = load i32, ptr %10, align 8, !tbaa !312
  %12 = or i32 %11, %6
  store i32 %12, ptr %10, align 8, !tbaa !312
  ret void
}

; Function Attrs: alwaysinline nounwind uwtable
define internal void @mbedtls_put_unaligned_uint16(ptr noundef %0, i16 noundef zeroext %1) #9 {
  %3 = alloca ptr, align 8
  %4 = alloca i16, align 2
  store ptr %0, ptr %3, align 8, !tbaa !70
  store i16 %1, ptr %4, align 2, !tbaa !115
  %5 = load ptr, ptr %3, align 8, !tbaa !70
  call void @llvm.memcpy.p0.p0.i64(ptr align 1 %5, ptr align 2 %4, i64 2, i1 false)
  ret void
}

; Function Attrs: inlinehint nounwind uwtable
define internal i32 @mbedtls_ssl_chk_buf_ptr(ptr noundef %0, ptr noundef %1, i64 noundef %2) #3 {
  %4 = alloca ptr, align 8
  %5 = alloca ptr, align 8
  %6 = alloca i64, align 8
  store ptr %0, ptr %4, align 8, !tbaa !29
  store ptr %1, ptr %5, align 8, !tbaa !29
  store i64 %2, ptr %6, align 8, !tbaa !8
  %7 = load ptr, ptr %4, align 8, !tbaa !29
  %8 = load ptr, ptr %5, align 8, !tbaa !29
  %9 = icmp ugt ptr %7, %8
  br i1 %9, label %18, label %10

10:                                               ; preds = %3
  %11 = load i64, ptr %6, align 8, !tbaa !8
  %12 = load ptr, ptr %5, align 8, !tbaa !29
  %13 = load ptr, ptr %4, align 8, !tbaa !29
  %14 = ptrtoint ptr %12 to i64
  %15 = ptrtoint ptr %13 to i64
  %16 = sub i64 %14, %15
  %17 = icmp ugt i64 %11, %16
  br label %18

18:                                               ; preds = %10, %3
  %19 = phi i1 [ true, %3 ], [ %17, %10 ]
  %20 = zext i1 %19 to i32
  ret i32 %20
}

; Function Attrs: nounwind uwtable
define hidden i32 @mbedtls_ssl_write_alpn_ext(ptr noundef %0, ptr noundef %1, ptr noundef %2, ptr noundef %3) #0 {
  %5 = alloca i32, align 4
  %6 = alloca ptr, align 8
  %7 = alloca ptr, align 8
  %8 = alloca ptr, align 8
  %9 = alloca ptr, align 8
  %10 = alloca ptr, align 8
  %11 = alloca i64, align 8
  %12 = alloca i32, align 4
  store ptr %0, ptr %6, align 8, !tbaa !27
  store ptr %1, ptr %7, align 8, !tbaa !29
  store ptr %2, ptr %8, align 8, !tbaa !29
  store ptr %3, ptr %9, align 8, !tbaa !39
  call void @llvm.lifetime.start.p0(i64 8, ptr %10) #11
  %13 = load ptr, ptr %7, align 8, !tbaa !29
  store ptr %13, ptr %10, align 8, !tbaa !29
  call void @llvm.lifetime.start.p0(i64 8, ptr %11) #11
  %14 = load ptr, ptr %9, align 8, !tbaa !39
  store i64 0, ptr %14, align 8, !tbaa !8
  %15 = load ptr, ptr %6, align 8, !tbaa !27
  %16 = getelementptr inbounds nuw %struct.mbedtls_ssl_context, ptr %15, i32 0, i32 60
  %17 = load ptr, ptr %16, align 8, !tbaa !148
  %18 = icmp eq ptr %17, null
  br i1 %18, label %19, label %20

19:                                               ; preds = %4
  store i32 0, ptr %5, align 4
  store i32 1, ptr %12, align 4
  br label %66

20:                                               ; preds = %4
  %21 = load ptr, ptr %6, align 8, !tbaa !27
  %22 = getelementptr inbounds nuw %struct.mbedtls_ssl_context, ptr %21, i32 0, i32 60
  %23 = load ptr, ptr %22, align 8, !tbaa !148
  %24 = call i64 @strlen(ptr noundef %23) #13
  store i64 %24, ptr %11, align 8, !tbaa !8
  br label %25

25:                                               ; preds = %20
  %26 = load ptr, ptr %10, align 8, !tbaa !29
  %27 = load ptr, ptr %8, align 8, !tbaa !29
  %28 = load i64, ptr %11, align 8, !tbaa !8
  %29 = add i64 7, %28
  %30 = call i32 @mbedtls_ssl_chk_buf_ptr(ptr noundef %26, ptr noundef %27, i64 noundef %29)
  %31 = icmp ne i32 %30, 0
  br i1 %31, label %32, label %33

32:                                               ; preds = %25
  store i32 -27136, ptr %5, align 4
  store i32 1, ptr %12, align 4
  br label %66

33:                                               ; preds = %25
  br label %34

34:                                               ; preds = %33
  br label %35

35:                                               ; preds = %34
  %36 = load ptr, ptr %6, align 8, !tbaa !27
  call void (ptr, i32, ptr, i32, ptr, ...) @mbedtls_debug_print_msg(ptr noundef %36, i32 noundef 3, ptr noundef @.str, i32 noundef 9592, ptr noundef @.str.95)
  %37 = load ptr, ptr %10, align 8, !tbaa !29
  %38 = getelementptr inbounds i8, ptr %37, i64 0
  call void @mbedtls_put_unaligned_uint16(ptr noundef %38, i16 noundef zeroext 4096)
  %39 = load i64, ptr %11, align 8, !tbaa !8
  %40 = add i64 7, %39
  %41 = load ptr, ptr %9, align 8, !tbaa !39
  store i64 %40, ptr %41, align 8, !tbaa !8
  %42 = load ptr, ptr %10, align 8, !tbaa !29
  %43 = getelementptr inbounds i8, ptr %42, i64 2
  %44 = load i64, ptr %11, align 8, !tbaa !8
  %45 = add i64 %44, 3
  %46 = trunc i64 %45 to i16
  %47 = call i16 @llvm.bswap.i16(i16 %46)
  call void @mbedtls_put_unaligned_uint16(ptr noundef %43, i16 noundef zeroext %47)
  %48 = load ptr, ptr %10, align 8, !tbaa !29
  %49 = getelementptr inbounds i8, ptr %48, i64 4
  %50 = load i64, ptr %11, align 8, !tbaa !8
  %51 = add i64 %50, 1
  %52 = trunc i64 %51 to i16
  %53 = call i16 @llvm.bswap.i16(i16 %52)
  call void @mbedtls_put_unaligned_uint16(ptr noundef %49, i16 noundef zeroext %53)
  %54 = load i64, ptr %11, align 8, !tbaa !8
  %55 = and i64 %54, 255
  %56 = trunc i64 %55 to i8
  %57 = load ptr, ptr %10, align 8, !tbaa !29
  %58 = getelementptr inbounds i8, ptr %57, i64 6
  store i8 %56, ptr %58, align 1, !tbaa !87
  %59 = load ptr, ptr %10, align 8, !tbaa !29
  %60 = getelementptr inbounds i8, ptr %59, i64 7
  %61 = load ptr, ptr %6, align 8, !tbaa !27
  %62 = getelementptr inbounds nuw %struct.mbedtls_ssl_context, ptr %61, i32 0, i32 60
  %63 = load ptr, ptr %62, align 8, !tbaa !148
  %64 = load i64, ptr %11, align 8, !tbaa !8
  call void @llvm.memcpy.p0.p0.i64(ptr align 1 %60, ptr align 1 %63, i64 %64, i1 false)
  %65 = load ptr, ptr %6, align 8, !tbaa !27
  call void @mbedtls_ssl_tls13_set_hs_sent_ext_mask(ptr noundef %65, i32 noundef 16)
  store i32 0, ptr %5, align 4
  store i32 1, ptr %12, align 4
  br label %66

66:                                               ; preds = %35, %32, %19
  call void @llvm.lifetime.end.p0(i64 8, ptr %11) #11
  call void @llvm.lifetime.end.p0(i64 8, ptr %10) #11
  %67 = load i32, ptr %5, align 4
  ret i32 %67
}