; Function Attrs: nounwind uwtable
define hidden range(i32 -27136, 1) i32 @mbedtls_ssl_write_alpn_ext(ptr noundef %0, ptr noundef %1, ptr noundef %2, ptr noundef writeonly captures(none) initializes((0, 8)) %3) local_unnamed_addr #1 {
  store i64 0, ptr %3, align 8, !tbaa !33
  %5 = getelementptr inbounds nuw i8, ptr %0, i64 440
  %6 = load ptr, ptr %5, align 8, !tbaa !127
  %7 = icmp eq ptr %6, null
  br i1 %7, label %32, label %8

8:                                                ; preds = %4
  %9 = tail call i64 @strlen(ptr noundef nonnull dereferenceable(1) %6) #28
  %10 = add i64 %9, 7
  %11 = icmp ule ptr %1, %2
  %12 = ptrtoint ptr %2 to i64
  %13 = ptrtoint ptr %1 to i64
  %14 = sub i64 %12, %13
  %15 = icmp ule i64 %10, %14
  %narrow.i.not = and i1 %11, %15
  br i1 %narrow.i.not, label %16, label %32

16:                                               ; preds = %8
  tail call void (ptr, i32, ptr, i32, ptr, ...) @mbedtls_debug_print_msg(ptr noundef nonnull %0, i32 noundef 3, ptr noundef nonnull @.str, i32 noundef 9592, ptr noundef nonnull @.str.95) #26
  store i16 4096, ptr %1, align 1
  store i64 %10, ptr %3, align 8, !tbaa !33
  %17 = getelementptr inbounds nuw i8, ptr %1, i64 2
  %18 = trunc i64 %9 to i16
  %19 = add i16 %18, 3
  %20 = tail call i16 @llvm.bswap.i16(i16 %19)
  store i16 %20, ptr %17, align 1
  %21 = getelementptr inbounds nuw i8, ptr %1, i64 4
  %22 = add i16 %18, 1
  %23 = tail call i16 @llvm.bswap.i16(i16 %22)
  store i16 %23, ptr %21, align 1
  %24 = trunc i64 %9 to i8
  %25 = getelementptr inbounds nuw i8, ptr %1, i64 6
  store i8 %24, ptr %25, align 1, !tbaa !80
  %26 = getelementptr inbounds nuw i8, ptr %1, i64 7
  %27 = load ptr, ptr %5, align 8, !tbaa !127
  tail call void @llvm.memcpy.p0.p0.i64(ptr nonnull align 1 %26, ptr align 1 %27, i64 %9, i1 false)
  %28 = getelementptr i8, ptr %0, i64 112
  %.val = load ptr, ptr %28, align 8, !tbaa !70
  %29 = getelementptr inbounds nuw i8, ptr %.val, i64 3272
  %30 = load i32, ptr %29, align 8, !tbaa !291
  %31 = or i32 %30, 256
  store i32 %31, ptr %29, align 8, !tbaa !291
  br label %32

32:                                               ; preds = %8, %4, %16
  %.0 = phi i32 [ 0, %16 ], [ 0, %4 ], [ -27136, %8 ]
  ret i32 %.0
}